Certificate:
    Data:
        Version: 3 (0x2)
        Serial Number:
            44:a0:c0:96:1a:05:36:3d:0b:c3:40:2a:3c:59:53:21
    Signature Algorithm: sha256WithRSAEncryption
        Issuer: CN=DallasULC
        Validity
            Not Before: Mar  8 19:50:09 2018 GMT
            Not After : Mar  5 19:50:09 2028 GMT
        Subject: CN=home.dallasulc.com
        Subject Public Key Info:
            Public Key Algorithm: rsaEncryption
                Public-Key: (2048 bit)
                Modulus:
                    00:a5:57:88:2f:56:4c:ef:38:e3:0d:0f:38:ab:1e:
                    ae:62:72:94:33:62:70:3e:79:f5:90:17:0f:a2:1e:
                    de:0b:c6:ca:25:ab:74:f0:78:a2:f5:f4:38:ac:91:
                    ae:2c:f6:02:86:01:cd:6f:a5:8c:e5:c9:dc:8b:55:
                    f9:08:d1:22:99:99:28:7f:3d:f2:00:2c:7c:86:1b:
                    06:7a:78:9c:5f:ab:c5:a9:23:2c:e7:2c:8b:57:a9:
                    b7:0c:23:53:a8:29:ad:ca:af:d9:27:18:ab:62:22:
                    60:d2:f7:bb:87:7b:eb:fe:d1:9c:9a:1e:18:b5:0f:
                    b2:a8:88:cc:94:59:40:7d:bc:60:0b:62:33:93:55:
                    b5:c3:21:f2:d2:60:70:c6:95:4f:e7:fa:6e:d8:a6:
                    8e:41:6f:74:33:c8:e0:f6:f5:39:12:8d:0d:5b:7e:
                    23:ff:74:07:b1:f3:a0:59:26:51:47:53:42:d9:e3:
                    3c:46:e5:c7:be:67:a1:9d:b4:66:c1:bd:c2:6d:83:
                    0c:dd:d7:f5:06:c4:f3:be:f1:74:c7:2f:e7:60:f9:
                    69:2c:44:ec:7f:b8:26:f2:11:4d:ca:71:6e:80:f4:
                    27:de:92:bd:89:28:7e:f7:4f:24:ef:ba:24:04:68:
                    5a:25:6a:6b:65:31:7e:84:d3:53:65:da:6c:ba:3b:
                    fe:55
                Exponent: 65537 (0x10001)
        X509v3 extensions:
            X509v3 Basic Constraints: 
                CA:FALSE
            X509v3 Subject Key Identifier: 
                09:78:72:FF:92:60:B6:EC:0E:BB:CC:34:15:76:6C:F1:63:23:02:08
            X509v3 Authority Key Identifier: 
                keyid:7C:FA:51:82:3F:0C:AB:DF:87:4A:76:E7:13:62:95:37:03:86:DE:40
                DirName:/CN=DallasULC
                serial:94:07:2F:57:1D:BB:F2:1C

            X509v3 Extended Key Usage: 
                TLS Web Server Authentication
            X509v3 Key Usage: 
                Digital Signature, Key Encipherment
            X509v3 Subject Alternative Name: 
                DNS:home.dallasulc.com
    Signature Algorithm: sha256WithRSAEncryption
         27:cc:9a:1a:8a:01:62:a7:b2:08:c1:cd:84:3b:ce:85:c4:af:
         e6:1c:92:a3:3e:39:cd:75:17:51:7c:6c:87:36:90:61:1e:3b:
         cd:d1:30:3f:f3:d6:42:a4:79:ef:0e:02:9e:bd:ab:79:86:91:
         ff:31:4a:65:24:e7:f6:61:98:0e:28:eb:8c:ba:73:87:da:b2:
         32:6c:e4:3f:da:f0:19:00:f9:19:4d:d7:09:b5:0b:72:e6:6a:
         70:43:92:1a:78:41:ed:bf:51:0d:81:53:40:db:41:b3:29:e2:
         d9:98:c6:3a:10:49:1a:b4:6f:e3:d7:ac:5b:6a:c1:83:95:54:
         39:72:eb:de:9d:ff:db:e0:4b:ea:0c:e0:3e:3b:67:b6:38:9a:
         4d:84:4f:62:ac:a5:c5:66:31:18:e5:47:b7:47:9d:94:30:f1:
         53:49:34:4f:23:0c:5e:2e:8e:67:a3:f0:63:7d:0f:ad:7d:2b:
         7a:ef:ee:5a:ba:4b:c6:fe:25:af:44:d1:97:88:14:47:2c:c5:
         f3:1e:03:44:d2:74:69:8b:8d:95:86:15:09:78:fe:8b:5c:80:
         2d:f3:02:18:7d:65:8e:35:e4:7f:0a:88:18:73:80:47:f2:f8:
         ee:a9:7c:95:7b:b4:27:a7:cd:6a:06:4a:9a:d0:1c:ce:9a:72:
         6b:1c:4f:77
-----BEGIN CERTIFICATE-----
MIIDcDCCAligAwIBAgIQRKDAlhoFNj0Lw0AqPFlTITANBgkqhkiG9w0BAQsFADAU
MRIwEAYDVQQDDAlEYWxsYXNVTEMwHhcNMTgwMzA4MTk1MDA5WhcNMjgwMzA1MTk1
MDA5WjAdMRswGQYDVQQDDBJob21lLmRhbGxhc3VsYy5jb20wggEiMA0GCSqGSIb3
DQEBAQUAA4IBDwAwggEKAoIBAQClV4gvVkzvOOMNDzirHq5icpQzYnA+efWQFw+i
Ht4Lxsolq3TweKL19Diska4s9gKGAc1vpYzlydyLVfkI0SKZmSh/PfIALHyGGwZ6
eJxfq8WpIyznLItXqbcMI1OoKa3Kr9knGKtiImDS97uHe+v+0ZyaHhi1D7KoiMyU
WUB9vGALYjOTVbXDIfLSYHDGlU/n+m7Ypo5Bb3QzyOD29TkSjQ1bfiP/dAex86BZ
JlFHU0LZ4zxG5ce+Z6GdtGbBvcJtgwzd1/UGxPO+8XTHL+dg+WksROx/uCbyEU3K
cW6A9Cfekr2JKH73TyTvuiQEaFolamtlMX6E01Nl2my6O/5VAgMBAAGjgbQwgbEw
CQYDVR0TBAIwADAdBgNVHQ4EFgQUCXhy/5JgtuwOu8w0FXZs8WMjAggwRAYDVR0j
BD0wO4AUfPpRgj8Mq9+HSnbnE2KVNwOG3kChGKQWMBQxEjAQBgNVBAMMCURhbGxh
c1VMQ4IJAJQHL1cdu/IcMBMGA1UdJQQMMAoGCCsGAQUFBwMBMAsGA1UdDwQEAwIF
oDAdBgNVHREEFjAUghJob21lLmRhbGxhc3VsYy5jb20wDQYJKoZIhvcNAQELBQAD
ggEBACfMmhqKAWKnsgjBzYQ7zoXEr+YckqM+Oc11F1F8bIc2kGEeO83RMD/z1kKk
ee8OAp69q3mGkf8xSmUk5/ZhmA4o64y6c4fasjJs5D/a8BkA+RlN1wm1C3LmanBD
khp4Qe2/UQ2BU0DbQbMp4tmYxjoQSRq0b+PXrFtqwYOVVDly696d/9vgS+oM4D47
Z7Y4mk2ET2KspcVmMRjlR7dHnZQw8VNJNE8jDF4ujmej8GN9D619K3rv7lq6S8b+
Ja9E0ZeIFEcsxfMeA0TSdGmLjZWGFQl4/otcgC3zAhh9ZY415H8KiBhzgEfy+O6p
fJV7tCenzWoGSprQHM6acmscT3c=
-----END CERTIFICATE-----
