Certificate:
    Data:
        Version: 3 (0x2)
        Serial Number:
            e0:a2:81:b9:91:78:af:24:49:c7:fc:d5:64:30:36:95
    Signature Algorithm: sha256WithRSAEncryption
        Issuer: CN=DallasULC
        Validity
            Not Before: Mar  8 19:52:19 2018 GMT
            Not After : Mar  5 19:52:19 2028 GMT
        Subject: CN=JustinsMBA
        Subject Public Key Info:
            Public Key Algorithm: rsaEncryption
                Public-Key: (2048 bit)
                Modulus:
                    00:bc:2f:ef:b4:64:e6:05:69:86:0c:d7:3d:11:0f:
                    59:6c:2b:28:8d:dd:ba:84:82:11:37:56:8f:c1:90:
                    f3:f1:d8:db:8a:84:6a:c0:a7:13:17:54:a3:11:62:
                    27:16:5d:cf:d6:55:e5:f2:f1:36:41:e2:99:bd:e5:
                    08:6d:7b:f6:92:42:78:50:6d:d1:8f:a9:5e:f1:4f:
                    e1:29:5a:be:3a:cc:aa:d5:30:3d:ed:fd:6a:92:1a:
                    3c:a0:86:45:78:46:33:a8:ef:d9:36:62:79:d0:a0:
                    d2:85:1d:83:fb:37:41:36:6f:4b:3b:b9:9f:dd:83:
                    08:60:4d:f7:ff:37:31:38:56:8c:fa:88:69:4d:2a:
                    aa:77:cf:77:cf:71:88:b5:09:a2:85:4b:df:79:15:
                    35:5b:99:f4:9b:74:d0:35:9f:5c:b0:93:b2:5d:38:
                    81:1f:92:cd:72:65:c8:7a:b1:dd:5c:89:16:aa:45:
                    5a:47:80:0c:c6:0c:d4:12:4a:91:76:48:3f:66:d2:
                    49:04:86:66:45:e7:d4:10:38:c3:a0:a7:96:dc:7d:
                    ed:a5:03:b7:bd:1a:9f:00:ea:ec:21:03:6a:65:19:
                    fa:92:fa:81:a1:92:13:50:d7:62:7c:7c:a5:01:35:
                    9c:60:99:15:5e:d7:ea:26:92:63:94:e7:41:02:2e:
                    6b:c9
                Exponent: 65537 (0x10001)
        X509v3 extensions:
            X509v3 Basic Constraints: 
                CA:FALSE
            X509v3 Subject Key Identifier: 
                30:51:7C:0D:9F:1C:08:D2:B9:AE:1D:B7:6B:81:44:EB:EB:7B:E4:AE
            X509v3 Authority Key Identifier: 
                keyid:7C:FA:51:82:3F:0C:AB:DF:87:4A:76:E7:13:62:95:37:03:86:DE:40
                DirName:/CN=DallasULC
                serial:94:07:2F:57:1D:BB:F2:1C

            X509v3 Extended Key Usage: 
                TLS Web Client Authentication
            X509v3 Key Usage: 
                Digital Signature
    Signature Algorithm: sha256WithRSAEncryption
         37:4b:c3:93:f7:11:f3:c5:c7:f1:94:44:a0:6a:26:a6:af:c8:
         d6:52:be:01:f8:41:4f:40:b1:82:ff:39:aa:51:e4:d0:42:7a:
         18:55:20:a1:39:62:53:e9:b5:86:cd:64:bc:be:c1:f0:8b:e9:
         0c:90:94:5e:04:f8:a0:d3:f3:6e:c3:8c:8b:f8:43:fd:3f:31:
         8f:bb:07:ef:ec:8d:b1:90:ce:c5:d0:67:18:03:be:b8:1c:39:
         43:48:9a:9f:fd:2d:47:db:59:47:12:c5:46:ff:78:71:3c:88:
         31:9b:da:d1:cd:c8:04:d8:bb:70:7e:fe:0c:1e:f3:fb:e5:f2:
         06:01:6f:36:aa:f7:4f:c8:c3:3f:0b:b5:7f:19:54:83:38:98:
         b8:7c:69:95:b6:e2:c6:b8:5d:6f:66:5a:7e:a8:44:97:98:40:
         10:ba:a0:5b:8d:e8:d2:88:a4:bc:33:c3:67:b7:e0:6f:ea:ca:
         be:12:2c:c1:55:1c:12:4d:37:da:e9:82:08:da:0c:4f:f4:ff:
         82:52:d3:0a:9c:ed:60:1a:a6:63:e1:62:5c:2e:d3:1d:0f:5f:
         22:f1:30:ff:e1:c0:43:46:3f:41:f9:94:2a:a1:bf:d4:a2:24:
         41:42:86:c6:84:ad:10:48:74:37:70:5f:d4:51:37:03:27:81:
         10:1a:44:52
-----BEGIN CERTIFICATE-----
MIIDSjCCAjKgAwIBAgIRAOCigbmReK8kScf81WQwNpUwDQYJKoZIhvcNAQELBQAw
FDESMBAGA1UEAwwJRGFsbGFzVUxDMB4XDTE4MDMwODE5NTIxOVoXDTI4MDMwNTE5
NTIxOVowFTETMBEGA1UEAwwKSnVzdGluc01CQTCCASIwDQYJKoZIhvcNAQEBBQAD
ggEPADCCAQoCggEBALwv77Rk5gVphgzXPREPWWwrKI3duoSCETdWj8GQ8/HY24qE
asCnExdUoxFiJxZdz9ZV5fLxNkHimb3lCG179pJCeFBt0Y+pXvFP4SlavjrMqtUw
Pe39apIaPKCGRXhGM6jv2TZiedCg0oUdg/s3QTZvSzu5n92DCGBN9/83MThWjPqI
aU0qqnfPd89xiLUJooVL33kVNVuZ9Jt00DWfXLCTsl04gR+SzXJlyHqx3VyJFqpF
WkeADMYM1BJKkXZIP2bSSQSGZkXn1BA4w6Cnltx97aUDt70anwDq7CEDamUZ+pL6
gaGSE1DXYnx8pQE1nGCZFV7X6iaSY5TnQQIua8kCAwEAAaOBlTCBkjAJBgNVHRME
AjAAMB0GA1UdDgQWBBQwUXwNnxwI0rmuHbdrgUTr63vkrjBEBgNVHSMEPTA7gBR8
+lGCPwyr34dKducTYpU3A4beQKEYpBYwFDESMBAGA1UEAwwJRGFsbGFzVUxDggkA
lAcvVx278hwwEwYDVR0lBAwwCgYIKwYBBQUHAwIwCwYDVR0PBAQDAgeAMA0GCSqG
SIb3DQEBCwUAA4IBAQA3S8OT9xHzxcfxlESgaiamr8jWUr4B+EFPQLGC/zmqUeTQ
QnoYVSChOWJT6bWGzWS8vsHwi+kMkJReBPig0/Nuw4yL+EP9PzGPuwfv7I2xkM7F
0GcYA764HDlDSJqf/S1H21lHEsVG/3hxPIgxm9rRzcgE2Ltwfv4MHvP75fIGAW82
qvdPyMM/C7V/GVSDOJi4fGmVtuLGuF1vZlp+qESXmEAQuqBbjejSiKS8M8Nnt+Bv
6sq+EizBVRwSTTfa6YII2gxP9P+CUtMKnO1gGqZj4WJcLtMdD18i8TD/4cBDRj9B
+ZQqob/UoiRBQobGhK0QSHQ3cF/UUTcDJ4EQGkRS
-----END CERTIFICATE-----
